; Function Attrs: nounwind uwtable
define internal fastcc ptr @convert_value_to_string(ptr %.200.val.40.val, i64 noundef %0, i32 noundef %1) unnamed_addr #0 {
  %3 = alloca i32, align 4
  %4 = alloca i8, align 1
  call void @llvm.lifetime.start.p0(i64 4, ptr nonnull %3) #12
  call void @llvm.lifetime.start.p0(i64 1, ptr nonnull %4) #12
  %5 = load ptr, ptr @CurrentMemoryContext, align 8
  store ptr %.200.val.40.val, ptr @CurrentMemoryContext, align 8
  call void @getTypeOutputInfo(i32 noundef %1, ptr noundef nonnull %3, ptr noundef nonnull %4) #12
  %6 = load i32, ptr %3, align 4
  %7 = call ptr @OidOutputFunctionCall(i32 noundef %6, i64 noundef %0) #12
  store ptr %5, ptr @CurrentMemoryContext, align 8
  call void @llvm.lifetime.end.p0(i64 1, ptr nonnull %4) #12
  call void @llvm.lifetime.end.p0(i64 4, ptr nonnull %3) #12
  ret ptr %7
}